; Function Attrs: nounwind uwtable
define ptr @l___private_Lean_Meta_ExprLens_0__Lean_Meta_foldAncestorsAux___rarg___lambda__3(ptr noundef %0, ptr noundef %1, ptr noundef %2, ptr noundef %3, ptr noundef %4, ptr noundef %5, ptr noundef %6, ptr noundef %7, ptr noundef %8) #0 {
  tail call void @lean_inc_heartbeat() #5
  %10 = tail call noalias ptr @mi_malloc_small(i64 noundef 40) #5
  %11 = icmp eq ptr %10, null
  br i1 %11, label %12, label %lean_alloc_closure.exit

12:                                               ; preds = %9
  tail call void @lean_internal_panic_out_of_memory() #6
  unreachable

lean_alloc_closure.exit:                          ; preds = %9
  %13 = getelementptr inbounds nuw i8, ptr %10, i64 4
  store i32 1, ptr %10, align 4, !tbaa !4
  store i32 -184549336, ptr %13, align 4
  %14 = getelementptr inbounds nuw i8, ptr %10, i64 8
  store ptr @l___private_Lean_Meta_ExprLens_0__Lean_Meta_foldAncestorsAux___rarg___lambda__2___boxed, ptr %14, align 8, !tbaa !9
  %15 = getelementptr inbounds nuw i8, ptr %10, i64 16
  store i16 6, ptr %15, align 8, !tbaa !11
  %16 = getelementptr inbounds nuw i8, ptr %10, i64 18
  store i16 2, ptr %16, align 2, !tbaa !11
  %17 = getelementptr inbounds nuw i8, ptr %10, i64 24
  store ptr %0, ptr %17, align 8, !tbaa !9
  %18 = getelementptr inbounds nuw i8, ptr %10, i64 32
  store ptr %1, ptr %18, align 8, !tbaa !9
  %19 = load ptr, ptr @l___private_Lean_Meta_ExprLens_0__Lean_Meta_viewAux___rarg___lambda__3___closed__1, align 8, !tbaa !9
  %20 = tail call ptr @l___private_Lean_Meta_ExprLens_0__Lean_Meta_foldAncestorsAux___rarg(ptr noundef %2, ptr noundef %3, ptr noundef %4, ptr noundef %5, ptr nonnull poison, ptr noundef nonnull %10, ptr noundef %8, ptr noundef %6, ptr noundef %19, ptr noundef %7)
  ret ptr %20
}